target datalayout = "e-m:e-p270:32:32-p271:32:32-p272:64:64-i64:64-i128:128-f80:128-n8:16:32:64-S128"
target triple = "x86_64-pc-linux-gnu"

@PyExc_StopIteration = external global ptr, align 8

; Function Attrs: nounwind uwtable
define dso_local i32 @_PyGen_SetStopIterationValue(ptr noundef %0) #0 {
  %2 = alloca i32, align 4
  %3 = alloca ptr, align 8
  %4 = alloca ptr, align 8
  %5 = alloca i32, align 4
  store ptr %0, ptr %3, align 8, !tbaa !11
  call void @llvm.lifetime.start.p0(i64 8, ptr %4) #7
  %6 = load ptr, ptr %3, align 8, !tbaa !11
  %7 = icmp eq ptr %6, null
  br i1 %7, label %8, label %11

8:                                                ; preds = %1
  %9 = load ptr, ptr @PyExc_StopIteration, align 8, !tbaa !11
  %10 = call ptr @PyObject_CallNoArgs(ptr noundef %9)
  br label %15

11:                                               ; preds = %1
  %12 = load ptr, ptr @PyExc_StopIteration, align 8, !tbaa !11
  %13 = load ptr, ptr %3, align 8, !tbaa !11
  %14 = call ptr @PyObject_CallOneArg(ptr noundef %12, ptr noundef %13)
  br label %15

15:                                               ; preds = %11, %8
  %16 = phi ptr [ %10, %8 ], [ %14, %11 ]
  store ptr %16, ptr %4, align 8, !tbaa !11
  %17 = load ptr, ptr %4, align 8, !tbaa !11
  %18 = icmp eq ptr %17, null
  br i1 %18, label %19, label %20

19:                                               ; preds = %15
  store i32 -1, ptr %2, align 4
  store i32 1, ptr %5, align 4
  br label %22

20:                                               ; preds = %15
  %21 = load ptr, ptr %4, align 8, !tbaa !11
  call void @PyErr_SetRaisedException(ptr noundef %21)
  store i32 0, ptr %2, align 4
  store i32 1, ptr %5, align 4
  br label %22

22:                                               ; preds = %20, %19
  call void @llvm.lifetime.end.p0(i64 8, ptr %4) #7
  %23 = load i32, ptr %2, align 4
  ret i32 %23
}