; Function Attrs: nounwind uwtable
define dso_local range(i32 -1, 1) i32 @_PyGen_SetStopIterationValue(ptr noundef %0) local_unnamed_addr #2 {
  %2 = icmp eq ptr %0, null
  %3 = load ptr, ptr @PyExc_StopIteration, align 8, !tbaa !32
  br i1 %2, label %4, label %6

4:                                                ; preds = %1
  %5 = tail call ptr @PyObject_CallNoArgs(ptr noundef %3) #8
  br label %8

6:                                                ; preds = %1
  %7 = tail call ptr @PyObject_CallOneArg(ptr noundef %3, ptr noundef nonnull %0) #8
  br label %8

8:                                                ; preds = %6, %4
  %9 = phi ptr [ %5, %4 ], [ %7, %6 ]
  %10 = icmp eq ptr %9, null
  br i1 %10, label %12, label %11

11:                                               ; preds = %8
  tail call void @PyErr_SetRaisedException(ptr noundef nonnull %9) #8
  br label %12

12:                                               ; preds = %8, %11
  %.0 = phi i32 [ 0, %11 ], [ -1, %8 ]
  ret i32 %.0
}